{
   llvm::raw_ostream::flush
   Memcheck:Addr8
   fun:_ZN4llvm11raw_ostream5flushEv
   fun:_ZN4llvm11raw_ostream13SetUnbufferedEv
   fun:_ZN4llvm21formatted_raw_ostream13releaseStreamEv
   fun:_ZN4llvm21formatted_raw_ostreamD2Ev
   fun:_ZN4llvm21formatted_raw_ostreamD0Ev
   fun:_ZNKSt14default_deleteIN4llvm21formatted_raw_ostreamEEclEPS1_
   fun:_ZNSt10unique_ptrIN4llvm21formatted_raw_ostreamESt14default_deleteIS1_EED2Ev
   fun:_ZN12_GLOBAL__N_113MCAsmStreamerD2Ev
   fun:_ZN12_GLOBAL__N_113MCAsmStreamerD0Ev
   fun:_ZNKSt14default_deleteIN4llvm10MCStreamerEEclEPS1_
   fun:_ZNSt10unique_ptrIN4llvm10MCStreamerESt14default_deleteIS1_EED2Ev
   fun:_ZN4llvm10AsmPrinterD1Ev
}


{
   llvm::raw_ostream::GetNumBytesInBuffer
   Memcheck:Addr8
   fun:_ZNK4llvm11raw_ostream19GetNumBytesInBufferEv
   fun:_ZN4llvm11raw_ostream16SetBufferAndModeEPcmNS0_10BufferKindE
   fun:_ZN4llvm11raw_ostream13SetUnbufferedEv
   fun:_ZN4llvm21formatted_raw_ostream13releaseStreamEv
   fun:_ZN4llvm21formatted_raw_ostreamD2Ev
   fun:_ZN4llvm21formatted_raw_ostreamD0Ev
   fun:_ZNKSt14default_deleteIN4llvm21formatted_raw_ostreamEEclEPS1_
   fun:_ZNSt10unique_ptrIN4llvm21formatted_raw_ostreamESt14default_deleteIS1_EED2Ev
   fun:_ZN12_GLOBAL__N_113MCAsmStreamerD2Ev
   fun:_ZN12_GLOBAL__N_113MCAsmStreamerD0Ev
   fun:_ZNKSt14default_deleteIN4llvm10MCStreamerEEclEPS1_
   fun:_ZNSt10unique_ptrIN4llvm10MCStreamerESt14default_deleteIS1_EED2Ev
}

{
   llvm::raw_ostream::SetBufferAndMode Addr4
   Memcheck:Addr4
   fun:_ZN4llvm11raw_ostream16SetBufferAndModeEPcmNS0_10BufferKindE
   fun:_ZN4llvm11raw_ostream13SetUnbufferedEv
   fun:_ZN4llvm21formatted_raw_ostream13releaseStreamEv
   fun:_ZN4llvm21formatted_raw_ostreamD2Ev
   fun:_ZN4llvm21formatted_raw_ostreamD0Ev
   fun:_ZNKSt14default_deleteIN4llvm21formatted_raw_ostreamEEclEPS1_
   fun:_ZNSt10unique_ptrIN4llvm21formatted_raw_ostreamESt14default_deleteIS1_EED2Ev
   fun:_ZN12_GLOBAL__N_113MCAsmStreamerD2Ev
   fun:_ZN12_GLOBAL__N_113MCAsmStreamerD0Ev
   fun:_ZNKSt14default_deleteIN4llvm10MCStreamerEEclEPS1_
   fun:_ZNSt10unique_ptrIN4llvm10MCStreamerESt14default_deleteIS1_EED2Ev
   fun:_ZN4llvm10AsmPrinterD1Ev
}

# Same as preceding except 8
{
   llvm::raw_ostream::SetBufferAndMode Addr8
   Memcheck:Addr8
   fun:_ZN4llvm11raw_ostream16SetBufferAndModeEPcmNS0_10BufferKindE
   fun:_ZN4llvm11raw_ostream13SetUnbufferedEv
   fun:_ZN4llvm21formatted_raw_ostream13releaseStreamEv
   fun:_ZN4llvm21formatted_raw_ostreamD2Ev
   fun:_ZN4llvm21formatted_raw_ostreamD0Ev
   fun:_ZNKSt14default_deleteIN4llvm21formatted_raw_ostreamEEclEPS1_
   fun:_ZNSt10unique_ptrIN4llvm21formatted_raw_ostreamESt14default_deleteIS1_EED2Ev
   fun:_ZN12_GLOBAL__N_113MCAsmStreamerD2Ev
   fun:_ZN12_GLOBAL__N_113MCAsmStreamerD0Ev
   fun:_ZNKSt14default_deleteIN4llvm10MCStreamerEEclEPS1_
   fun:_ZNSt10unique_ptrIN4llvm10MCStreamerESt14default_deleteIS1_EED2Ev
   fun:_ZN4llvm10AsmPrinterD1Ev
}


